; Function Attrs: uwtable
define void @_ZThn16_N22EditManipulatorsPlugin14mouseMoveEventEP11QMouseEventR9MeshModelP6GLArea(ptr noundef %0, ptr nocapture noundef readonly %1, ptr nocapture noundef nonnull align 8 dereferenceable(1288) %2, ptr noundef %3) unnamed_addr #13 align 2 {
  %5 = getelementptr inbounds i8, ptr %0, i64 -16
  %6 = getelementptr inbounds i8, ptr %0, i64 192
  %7 = load i8, ptr %6, align 8
  %8 = and i8 %7, 1
  %.not.i = icmp eq i8 %8, 0
  br i1 %.not.i, label %_ZN22EditManipulatorsPlugin14mouseMoveEventEP11QMouseEventR9MeshModelP6GLArea.exit, label %9

9:                                                ; preds = %4
  %10 = getelementptr inbounds i8, ptr %1, i64 32
  %11 = load double, ptr %10, align 8
  %12 = fcmp ult double %11, 0.000000e+00
  br i1 %12, label %16, label %13

13:                                               ; preds = %9
  %14 = fadd double %11, 5.000000e-01
  %15 = fptosi double %14 to i32
  br label %_ZNK11QMouseEvent1xEv.exit.i

16:                                               ; preds = %9
  %17 = fadd double %11, -1.000000e+00
  %18 = fptosi double %17 to i32
  %19 = sitofp i32 %18 to double
  %20 = fsub double %11, %19
  %21 = fadd double %20, 5.000000e-01
  %22 = fptosi double %21 to i32
  %23 = add nsw i32 %22, %18
  br label %_ZNK11QMouseEvent1xEv.exit.i

_ZNK11QMouseEvent1xEv.exit.i:                     ; preds = %16, %13
  %24 = phi i32 [ %15, %13 ], [ %23, %16 ]
  %25 = getelementptr inbounds i8, ptr %1, i64 40
  %26 = load double, ptr %25, align 8
  %27 = fcmp ult double %26, 0.000000e+00
  br i1 %27, label %31, label %28

28:                                               ; preds = %_ZNK11QMouseEvent1xEv.exit.i
  %29 = fadd double %26, 5.000000e-01
  %30 = fptosi double %29 to i32
  br label %_ZNK11QMouseEvent1yEv.exit.i

31:                                               ; preds = %_ZNK11QMouseEvent1xEv.exit.i
  %32 = fadd double %26, -1.000000e+00
  %33 = fptosi double %32 to i32
  %34 = sitofp i32 %33 to double
  %35 = fsub double %26, %34
  %36 = fadd double %35, 5.000000e-01
  %37 = fptosi double %36 to i32
  %38 = add nsw i32 %37, %33
  br label %_ZNK11QMouseEvent1yEv.exit.i

_ZNK11QMouseEvent1yEv.exit.i:                     ; preds = %31, %28
  %39 = phi i32 [ %30, %28 ], [ %38, %31 ]
  %40 = getelementptr inbounds i8, ptr %0, i64 204
  %.sroa.2.0.insert.ext.i = zext i32 %39 to i64
  %.sroa.2.0.insert.shift.i = shl nuw i64 %.sroa.2.0.insert.ext.i, 32
  %.sroa.0.0.insert.ext.i = zext i32 %24 to i64
  %.sroa.0.0.insert.insert.i = or disjoint i64 %.sroa.2.0.insert.shift.i, %.sroa.0.0.insert.ext.i
  store i64 %.sroa.0.0.insert.insert.i, ptr %40, align 4
  %41 = getelementptr inbounds i8, ptr %0, i64 196
  %42 = getelementptr inbounds i8, ptr %0, i64 212
  %43 = load <2 x i32>, ptr %41, align 4
  %44 = insertelement <2 x i32> poison, i32 %24, i64 0
  %45 = insertelement <2 x i32> %44, i32 %39, i64 1
  %46 = sub nsw <2 x i32> %45, %43
  %47 = sitofp <2 x i32> %46 to <2 x float>
  store <2 x float> %47, ptr %42, align 4
  tail call void @_ZN22EditManipulatorsPlugin12UpdateMatrixER9MeshModelP6GLAreabb(ptr noundef nonnull align 8 dereferenceable(304) %5, ptr noundef nonnull align 8 dereferenceable(1288) %2, ptr noundef %3, i1 noundef zeroext false, i1 noundef zeroext false)
  br label %_ZN22EditManipulatorsPlugin14mouseMoveEventEP11QMouseEventR9MeshModelP6GLArea.exit

_ZN22EditManipulatorsPlugin14mouseMoveEventEP11QMouseEventR9MeshModelP6GLArea.exit: ; preds = %4, %_ZNK11QMouseEvent1yEv.exit.i
  tail call void @_ZN7QWidget6updateEv(ptr noundef nonnull align 8 dereferenceable(48) %3)
  ret void
}